target datalayout = "e-m:e-p270:32:32-p271:32:32-p272:64:64-i64:64-i128:128-f80:128-n8:16:32:64-S128"
target triple = "x86_64-pc-linux-gnu"

%struct.strvec = type { ptr, i64, i64 }

@.str = private unnamed_addr constant [9 x i8] c"strvec.c\00", align 1
@.str.2 = private unnamed_addr constant [32 x i8] c"index outside of array boundary\00", align 1

; Function Attrs: nounwind uwtable
define dso_local ptr @strvec_replace(ptr noundef %0, i64 noundef %1, ptr noundef %2) #0 {
  %4 = alloca ptr, align 8
  %5 = alloca i64, align 8
  %6 = alloca ptr, align 8
  %7 = alloca ptr, align 8
  store ptr %0, ptr %4, align 8, !tbaa !4
  store i64 %1, ptr %5, align 8, !tbaa !17
  store ptr %2, ptr %6, align 8, !tbaa !9
  call void @llvm.lifetime.start.p0(i64 8, ptr %7) #8
  %8 = load i64, ptr %5, align 8, !tbaa !17
  %9 = load ptr, ptr %4, align 8, !tbaa !4
  %10 = getelementptr inbounds nuw %struct.strvec, ptr %9, i32 0, i32 1
  %11 = load i64, ptr %10, align 8, !tbaa !15
  %12 = icmp uge i64 %8, %11
  br i1 %12, label %13, label %14

13:                                               ; preds = %3
  call void (ptr, i32, ptr, ...) @BUG_fl(ptr noundef @.str, i32 noundef 85, ptr noundef @.str.2) #9
  unreachable

14:                                               ; preds = %3
  %15 = load ptr, ptr %4, align 8, !tbaa !4
  %16 = getelementptr inbounds nuw %struct.strvec, ptr %15, i32 0, i32 0
  %17 = load ptr, ptr %16, align 8, !tbaa !11
  %18 = load i64, ptr %5, align 8, !tbaa !17
  %19 = getelementptr inbounds nuw ptr, ptr %17, i64 %18
  %20 = load ptr, ptr %19, align 8, !tbaa !9
  store ptr %20, ptr %7, align 8, !tbaa !9
  %21 = load ptr, ptr %6, align 8, !tbaa !9
  %22 = call ptr @xstrdup(ptr noundef %21)
  %23 = load ptr, ptr %4, align 8, !tbaa !4
  %24 = getelementptr inbounds nuw %struct.strvec, ptr %23, i32 0, i32 0
  %25 = load ptr, ptr %24, align 8, !tbaa !11
  %26 = load i64, ptr %5, align 8, !tbaa !17
  %27 = getelementptr inbounds nuw ptr, ptr %25, i64 %26
  store ptr %22, ptr %27, align 8, !tbaa !9
  %28 = load ptr, ptr %7, align 8, !tbaa !9
  call void @free(ptr noundef %28) #8
  %29 = load ptr, ptr %4, align 8, !tbaa !4
  %30 = getelementptr inbounds nuw %struct.strvec, ptr %29, i32 0, i32 0
  %31 = load ptr, ptr %30, align 8, !tbaa !11
  %32 = load i64, ptr %5, align 8, !tbaa !17
  %33 = getelementptr inbounds nuw ptr, ptr %31, i64 %32
  %34 = load ptr, ptr %33, align 8, !tbaa !9
  call void @llvm.lifetime.end.p0(i64 8, ptr %7) #8
  ret ptr %34
}