; Function Attrs: nounwind uwtable
define dso_local ptr @strvec_replace(ptr noundef readonly captures(none) %0, i64 noundef %1, ptr noundef %2) local_unnamed_addr #3 {
  %4 = getelementptr inbounds nuw i8, ptr %0, i64 8
  %5 = load i64, ptr %4, align 8, !tbaa !11
  %.not = icmp ult i64 %1, %5
  br i1 %.not, label %7, label %6

6:                                                ; preds = %3
  tail call void (ptr, i32, ptr, ...) @BUG_fl(ptr noundef nonnull @.str, i32 noundef 85, ptr noundef nonnull @.str.2) #10
  unreachable

7:                                                ; preds = %3
  %8 = load ptr, ptr %0, align 8, !tbaa !4
  %9 = getelementptr inbounds nuw ptr, ptr %8, i64 %1
  %10 = load ptr, ptr %9, align 8, !tbaa !13
  %11 = tail call ptr @xstrdup(ptr noundef %2) #11
  %12 = load ptr, ptr %0, align 8, !tbaa !4
  %13 = getelementptr inbounds nuw ptr, ptr %12, i64 %1
  store ptr %11, ptr %13, align 8, !tbaa !13
  tail call void @free(ptr noundef %10) #11
  %14 = load ptr, ptr %0, align 8, !tbaa !4
  %15 = getelementptr inbounds nuw ptr, ptr %14, i64 %1
  %16 = load ptr, ptr %15, align 8, !tbaa !13
  ret ptr %16
}